target datalayout = "e-m:e-p270:32:32-p271:32:32-p272:64:64-i64:64-i128:128-f80:128-n8:16:32:64-S128"
target triple = "x86_64-pc-linux-gnu"

%struct.ImVec2 = type { float, float }
%struct.ImGuiInputTextState = type <{ ptr, ptr, i32, i32, %struct.ImVector.34, %struct.ImVector.34, %struct.ImVector.34, i32, %struct.ImVec2, float, i8, i8, i8, i8, i32, i8, [3 x i8], i32, i32, [4 x i8] }>
%struct.ImVector.34 = type { i32, i32, ptr }

; Function Attrs: mustprogress nounwind uwtable
define dso_local void @_ZN19ImGuiInputTextState25ReloadUserBufAndSelectAllEv(ptr noundef nonnull align 8 dereferenceable(108) %0) #4 align 2 {
  %2 = alloca ptr, align 8
  store ptr %0, ptr %2, align 8, !tbaa !420
  %3 = load ptr, ptr %2, align 8
  %4 = getelementptr inbounds nuw %struct.ImGuiInputTextState, ptr %3, i32 0, i32 15
  store i8 1, ptr %4, align 8, !tbaa !424
  %5 = getelementptr inbounds nuw %struct.ImGuiInputTextState, ptr %3, i32 0, i32 17
  store i32 0, ptr %5, align 4, !tbaa !433
  %6 = getelementptr inbounds nuw %struct.ImGuiInputTextState, ptr %3, i32 0, i32 18
  store i32 2147483647, ptr %6, align 8, !tbaa !435
  ret void
}