; Function Attrs: mustprogress nofree norecurse nosync nounwind willreturn memory(argmem: write) uwtable
define dso_local void @_ZN19ImGuiInputTextState25ReloadUserBufAndSelectAllEv(ptr noundef nonnull writeonly align 8 captures(none) dereferenceable(108) initializes((96, 97), (100, 108)) %0) local_unnamed_addr #25 align 2 {
  %2 = getelementptr inbounds nuw i8, ptr %0, i64 96
  store i8 1, ptr %2, align 8, !tbaa !373
  %3 = getelementptr inbounds nuw i8, ptr %0, i64 100
  store i32 0, ptr %3, align 4, !tbaa !399
  %4 = getelementptr inbounds nuw i8, ptr %0, i64 104
  store i32 2147483647, ptr %4, align 8, !tbaa !400
  ret void
}